target datalayout = "e-m:e-p270:32:32-p271:32:32-p272:64:64-i64:64-i128:128-f80:128-n8:16:32:64-S128"
target triple = "x86_64-unknown-linux-gnu"

; Function Attrs: mustprogress uwtable
define noundef i32 @_ZN5arrow7compute9Hashing3215HashVarLen_avx2EbjPKmPKhPjS6_(i1 noundef zeroext %combine_hashes, i32 noundef %num_rows, ptr noundef %offsets, ptr noundef %concatenated_keys, ptr noundef %hashes, ptr noundef %hashes_temp_for_combine) #0 align 2 {
entry:
  %retval = alloca i32, align 4
  %combine_hashes.addr = alloca i8, align 1
  %num_rows.addr = alloca i32, align 4
  %offsets.addr = alloca ptr, align 8
  %concatenated_keys.addr = alloca ptr, align 8
  %hashes.addr = alloca ptr, align 8
  %hashes_temp_for_combine.addr = alloca ptr, align 8
  %frombool = zext i1 %combine_hashes to i8
  store i8 %frombool, ptr %combine_hashes.addr, align 1
  store i32 %num_rows, ptr %num_rows.addr, align 4
  store ptr %offsets, ptr %offsets.addr, align 8
  store ptr %concatenated_keys, ptr %concatenated_keys.addr, align 8
  store ptr %hashes, ptr %hashes.addr, align 8
  store ptr %hashes_temp_for_combine, ptr %hashes_temp_for_combine.addr, align 8
  %0 = load i8, ptr %combine_hashes.addr, align 1
  %tobool = trunc i8 %0 to i1
  br i1 %tobool, label %if.then, label %if.else

if.then:                                          ; preds = %entry
  %1 = load i32, ptr %num_rows.addr, align 4
  %2 = load ptr, ptr %offsets.addr, align 8
  %3 = load ptr, ptr %concatenated_keys.addr, align 8
  %4 = load ptr, ptr %hashes.addr, align 8
  %5 = load ptr, ptr %hashes_temp_for_combine.addr, align 8
  %call = call noundef i32 @_ZN5arrow7compute9Hashing3218HashVarLenImp_avx2ImLb1EEEjjPKT_PKhPjS8_(i32 noundef %1, ptr noundef %2, ptr noundef %3, ptr noundef %4, ptr noundef %5)
  store i32 %call, ptr %retval, align 4
  br label %return

if.else:                                          ; preds = %entry
  %6 = load i32, ptr %num_rows.addr, align 4
  %7 = load ptr, ptr %offsets.addr, align 8
  %8 = load ptr, ptr %concatenated_keys.addr, align 8
  %9 = load ptr, ptr %hashes.addr, align 8
  %10 = load ptr, ptr %hashes_temp_for_combine.addr, align 8
  %call1 = call noundef i32 @_ZN5arrow7compute9Hashing3218HashVarLenImp_avx2ImLb0EEEjjPKT_PKhPjS8_(i32 noundef %6, ptr noundef %7, ptr noundef %8, ptr noundef %9, ptr noundef %10)
  store i32 %call1, ptr %retval, align 4
  br label %return

return:                                           ; preds = %if.else, %if.then
  %11 = load i32, ptr %retval, align 4
  ret i32 %11
}